target datalayout = "e-m:e-p270:32:32-p271:32:32-p272:64:64-i64:64-i128:128-f80:128-n8:16:32:64-S128"
target triple = "x86_64-pc-linux-gnu"

%struct._object = type { i64, ptr }

@_Py_NoneStruct = external global %struct._object, align 8

; Function Attrs: mustprogress nounwind uwtable
define internal noundef zeroext i8 @_ZN2cvL13saturate_castIhEET_i(i32 noundef %0) #5 {
  %2 = alloca i32, align 4
  store i32 %0, ptr %2, align 4
  %3 = load i32, ptr %2, align 4
  %4 = icmp ule i32 %3, 255
  br i1 %4, label %5, label %7

5:                                                ; preds = %1
  %6 = load i32, ptr %2, align 4
  br label %11

7:                                                ; preds = %1
  %8 = load i32, ptr %2, align 4
  %9 = icmp sgt i32 %8, 0
  %10 = select i1 %9, i32 255, i32 0
  br label %11

11:                                               ; preds = %7, %5
  %12 = phi i32 [ %6, %5 ], [ %10, %7 ]
  %13 = trunc i32 %12 to i8
  ret i8 %13
}

; Function Attrs: mustprogress uwtable
define hidden noundef zeroext i1 @_Z11pyopencv_toIhEbP7_objectRT_RK7ArgInfo(ptr noundef %0, ptr noundef nonnull align 1 dereferenceable(1) %1, ptr noundef nonnull align 8 dereferenceable(12) %2) #4 {
  %4 = alloca i1, align 1
  %5 = alloca ptr, align 8
  %6 = alloca ptr, align 8
  %7 = alloca ptr, align 8
  %8 = alloca i32, align 4
  store ptr %0, ptr %5, align 8
  store ptr %1, ptr %6, align 8
  store ptr %2, ptr %7, align 8
  %9 = load ptr, ptr %5, align 8
  %10 = icmp ne ptr %9, null
  br i1 %10, label %11, label %14

11:                                               ; preds = %3
  %12 = load ptr, ptr %5, align 8
  %13 = icmp eq ptr %12, @_Py_NoneStruct
  br i1 %13, label %14, label %15

14:                                               ; preds = %11, %3
  store i1 true, ptr %4, align 1
  br label %30

15:                                               ; preds = %11
  %16 = load ptr, ptr %5, align 8
  %17 = call i64 @PyLong_AsLong(ptr noundef %16)
  %18 = trunc i64 %17 to i32
  store i32 %18, ptr %8, align 4
  %19 = load i32, ptr %8, align 4
  %20 = call noundef zeroext i8 @_ZN2cvL13saturate_castIhEET_i(i32 noundef %19)
  %21 = load ptr, ptr %6, align 8
  store i8 %20, ptr %21, align 1
  %22 = load i32, ptr %8, align 4
  %23 = icmp ne i32 %22, -1
  br i1 %23, label %28, label %24

24:                                               ; preds = %15
  %25 = call ptr @PyErr_Occurred()
  %26 = icmp ne ptr %25, null
  %27 = xor i1 %26, true
  br label %28

28:                                               ; preds = %24, %15
  %29 = phi i1 [ true, %15 ], [ %27, %24 ]
  store i1 %29, ptr %4, align 1
  br label %30

30:                                               ; preds = %28, %14
  %31 = load i1, ptr %4, align 1
  ret i1 %31
}