; Function Attrs: mustprogress uwtable
define hidden noundef zeroext i1 @_Z11pyopencv_toIhEbP7_objectRT_RK7ArgInfo(ptr noundef %0, ptr nocapture noundef nonnull writeonly align 1 dereferenceable(1) %1, ptr nocapture noundef nonnull readnone align 8 dereferenceable(12) %2) local_unnamed_addr #3 {
  %4 = icmp eq ptr %0, null
  %5 = icmp eq ptr %0, @_Py_NoneStruct
  %or.cond = or i1 %4, %5
  br i1 %or.cond, label %14, label %6

6:                                                ; preds = %3
  %7 = tail call i64 @PyLong_AsLong(ptr noundef nonnull %0)
  %8 = trunc i64 %7 to i32
  %9 = tail call i32 @llvm.smax.i32(i32 %8, i32 0)
  %10 = tail call i32 @llvm.umin.i32(i32 %9, i32 255)
  %11 = trunc nuw i32 %10 to i8
  store i8 %11, ptr %1, align 1
  %.not = icmp eq i32 %8, -1
  br i1 %.not, label %12, label %14

12:                                               ; preds = %6
  %13 = tail call ptr @PyErr_Occurred()
  %.not8 = icmp eq ptr %13, null
  br label %14

14:                                               ; preds = %6, %12, %3
  %.0 = phi i1 [ true, %3 ], [ true, %6 ], [ %.not8, %12 ]
  ret i1 %.0
}